; Function Attrs: mustprogress uwtable
define void @_ZNK2cv4UMat3invEi(ptr dead_on_unwind noalias nonnull writable sret(%"class.cv::UMat") align 8 %0, ptr noundef nonnull align 8 dereferenceable(80) %1, i32 noundef %2) local_unnamed_addr #0 align 2 personality ptr @__gxx_personality_v0 {
  %4 = alloca %"class.cv::_InputArray", align 8
  %5 = alloca %"class.cv::_OutputArray", align 8
  tail call void @_ZN2cv4UMatC1ENS_14UMatUsageFlagsE(ptr noundef nonnull align 8 dereferenceable(80) %0, i32 noundef 0) #17
  call void @llvm.lifetime.start.p0(i64 24, ptr nonnull %4) #17
  %6 = getelementptr inbounds nuw i8, ptr %4, i64 16
  store i32 0, ptr %6, align 8, !tbaa !103
  %7 = getelementptr inbounds nuw i8, ptr %4, i64 20
  store i32 0, ptr %7, align 4, !tbaa !104
  store i32 17432576, ptr %4, align 8, !tbaa !96
  %8 = getelementptr inbounds nuw i8, ptr %4, i64 8
  store ptr %1, ptr %8, align 8, !tbaa !70
  call void @llvm.lifetime.start.p0(i64 24, ptr nonnull %5) #17
  %9 = getelementptr inbounds nuw i8, ptr %5, i64 8
  %10 = getelementptr inbounds nuw i8, ptr %5, i64 16
  store i64 0, ptr %10, align 8
  store i32 34209792, ptr %5, align 8, !tbaa !96
  store ptr %0, ptr %9, align 8, !tbaa !70
  %11 = invoke noundef double @_ZN2cv6invertERKNS_11_InputArrayERKNS_12_OutputArrayEi(ptr noundef nonnull align 8 dereferenceable(24) %4, ptr noundef nonnull align 8 dereferenceable(24) %5, i32 noundef %2)
          to label %12 unwind label %13

12:                                               ; preds = %3
  call void @llvm.lifetime.end.p0(i64 24, ptr nonnull %5) #17
  call void @llvm.lifetime.end.p0(i64 24, ptr nonnull %4) #17
  ret void

13:                                               ; preds = %3
  %14 = landingpad { ptr, i32 }
          cleanup
  call void @llvm.lifetime.end.p0(i64 24, ptr nonnull %5) #17
  call void @llvm.lifetime.end.p0(i64 24, ptr nonnull %4) #17
  call void @_ZN2cv4UMatD1Ev(ptr noundef nonnull align 8 dereferenceable(80) %0) #17
  resume { ptr, i32 } %14
}